; Function Attrs: mustprogress uwtable
define dso_local noundef zeroext i1 @_ZNK4i18n12phonenumbers15PhoneNumberUtil26StartsWithPlusCharsPatternERKNSt7__cxx1112basic_stringIcSt11char_traitsIcESaIcEEE(ptr nocapture noundef nonnull readonly align 8 dereferenceable(64) %0, ptr noundef nonnull align 8 dereferenceable(32) %1) local_unnamed_addr #4 align 2 personality ptr @__gxx_personality_v0 {
  %3 = getelementptr inbounds i8, ptr %0, i64 24
  %4 = load ptr, ptr %3, align 8
  %5 = getelementptr inbounds i8, ptr %4, i64 192
  %6 = load ptr, ptr %5, align 8
  %7 = load ptr, ptr %6, align 8
  %8 = getelementptr inbounds i8, ptr %7, i64 16
  %9 = load ptr, ptr %8, align 8
  %10 = tail call noundef ptr %9(ptr noundef nonnull align 8 dereferenceable(8) %6, ptr noundef nonnull align 8 dereferenceable(32) %1)
  %11 = load ptr, ptr %3, align 8
  %12 = getelementptr inbounds i8, ptr %11, i64 680
  %13 = load ptr, ptr %12, align 8
  %14 = load ptr, ptr %13, align 8
  %15 = getelementptr inbounds i8, ptr %14, i64 16
  %16 = load ptr, ptr %15, align 8
  %17 = invoke noundef zeroext i1 %16(ptr noundef nonnull align 8 dereferenceable(8) %13, ptr noundef %10, i1 noundef zeroext true, ptr noundef null, ptr noundef null, ptr noundef null, ptr noundef null, ptr noundef null, ptr noundef null)
          to label %_ZNK4i18n12phonenumbers6RegExp7ConsumeEPNS0_11RegExpInputE.exit unwind label %23

_ZNK4i18n12phonenumbers6RegExp7ConsumeEPNS0_11RegExpInputE.exit: ; preds = %2
  %18 = icmp eq ptr %10, null
  br i1 %18, label %_ZN5boost10scoped_ptrIN4i18n12phonenumbers11RegExpInputEED2Ev.exit, label %19

19:                                               ; preds = %_ZNK4i18n12phonenumbers6RegExp7ConsumeEPNS0_11RegExpInputE.exit
  %20 = load ptr, ptr %10, align 8
  %21 = getelementptr inbounds i8, ptr %20, i64 8
  %22 = load ptr, ptr %21, align 8
  tail call void %22(ptr noundef nonnull align 8 dereferenceable(8) %10) #26
  br label %_ZN5boost10scoped_ptrIN4i18n12phonenumbers11RegExpInputEED2Ev.exit

_ZN5boost10scoped_ptrIN4i18n12phonenumbers11RegExpInputEED2Ev.exit: ; preds = %_ZNK4i18n12phonenumbers6RegExp7ConsumeEPNS0_11RegExpInputE.exit, %19
  ret i1 %17

23:                                               ; preds = %2
  %24 = landingpad { ptr, i32 }
          cleanup
  %25 = icmp eq ptr %10, null
  br i1 %25, label %_ZN5boost10scoped_ptrIN4i18n12phonenumbers11RegExpInputEED2Ev.exit3, label %26

26:                                               ; preds = %23
  %27 = load ptr, ptr %10, align 8
  %28 = getelementptr inbounds i8, ptr %27, i64 8
  %29 = load ptr, ptr %28, align 8
  tail call void %29(ptr noundef nonnull align 8 dereferenceable(8) %10) #26
  br label %_ZN5boost10scoped_ptrIN4i18n12phonenumbers11RegExpInputEED2Ev.exit3

_ZN5boost10scoped_ptrIN4i18n12phonenumbers11RegExpInputEED2Ev.exit3: ; preds = %23, %26
  resume { ptr, i32 } %24
}